target datalayout = "e-m:e-p270:32:32-p271:32:32-p272:64:64-i64:64-i128:128-f80:128-n8:16:32:64-S128"
target triple = "x86_64-unknown-linux-gnu"

%struct.strList = type { ptr, ptr }

; Function Attrs: nounwind sspstrong uwtable
define dso_local zeroext i1 @apply_str_list_filter(ptr noundef %string, ptr noundef %list) #0 {
entry:
  %retval = alloca i1, align 1
  %string.addr = alloca ptr, align 8
  %list.addr = alloca ptr, align 8
  %str_list = alloca ptr, align 8
  store ptr %string, ptr %string.addr, align 8
  store ptr %list, ptr %list.addr, align 8
  store ptr null, ptr %str_list, align 8
  %0 = load ptr, ptr %list.addr, align 8
  %tobool = icmp ne ptr %0, null
  br i1 %tobool, label %if.end, label %if.then

if.then:                                          ; preds = %entry
  store i1 true, ptr %retval, align 1
  br label %return

if.end:                                           ; preds = %entry
  %1 = load ptr, ptr %list.addr, align 8
  store ptr %1, ptr %str_list, align 8
  br label %for.cond

for.cond:                                         ; preds = %for.inc, %if.end
  %2 = load ptr, ptr %str_list, align 8
  %tobool1 = icmp ne ptr %2, null
  br i1 %tobool1, label %for.body, label %for.end

for.body:                                         ; preds = %for.cond
  %3 = load ptr, ptr %string.addr, align 8
  %4 = load ptr, ptr %str_list, align 8
  %value = getelementptr inbounds %struct.strList, ptr %4, i32 0, i32 1
  %5 = load ptr, ptr %value, align 8
  %call = call i32 @g_str_equal(ptr noundef %3, ptr noundef %5)
  %tobool2 = icmp ne i32 %call, 0
  br i1 %tobool2, label %if.then3, label %if.end4

if.then3:                                         ; preds = %for.body
  store i1 true, ptr %retval, align 1
  br label %return

if.end4:                                          ; preds = %for.body
  br label %for.inc

for.inc:                                          ; preds = %if.end4
  %6 = load ptr, ptr %str_list, align 8
  %next = getelementptr inbounds %struct.strList, ptr %6, i32 0, i32 0
  %7 = load ptr, ptr %next, align 8
  store ptr %7, ptr %str_list, align 8
  br label %for.cond, !llvm.loop !9

for.end:                                          ; preds = %for.cond
  store i1 false, ptr %retval, align 1
  br label %return

return:                                           ; preds = %for.end, %if.then3, %if.then
  %8 = load i1, ptr %retval, align 1
  ret i1 %8
}