; Function Attrs: nounwind sspstrong uwtable
define dso_local noundef zeroext i1 @apply_str_list_filter(ptr noundef %string, ptr noundef readonly %list) local_unnamed_addr #0 {
entry:
  %tobool.not = icmp eq ptr %list, null
  br i1 %tobool.not, label %return, label %for.body

for.body:                                         ; preds = %entry, %for.inc
  %str_list.04 = phi ptr [ %1, %for.inc ], [ %list, %entry ]
  %value = getelementptr inbounds nuw i8, ptr %str_list.04, i64 8
  %0 = load ptr, ptr %value, align 8
  %call = tail call i32 @g_str_equal(ptr noundef %string, ptr noundef %0) #8
  %tobool2.not.not.not = icmp ne i32 %call, 0
  br i1 %tobool2.not.not.not, label %return, label %for.inc

for.inc:                                          ; preds = %for.body
  %1 = load ptr, ptr %str_list.04, align 8
  %tobool1.not = icmp eq ptr %1, null
  br i1 %tobool1.not, label %return, label %for.body, !llvm.loop !9

return:                                           ; preds = %for.inc, %for.body, %entry
  %retval.0 = phi i1 [ true, %entry ], [ %tobool2.not.not.not, %for.body ], [ %tobool2.not.not.not, %for.inc ]
  ret i1 %retval.0
}